target datalayout = "e-m:e-p270:32:32-p271:32:32-p272:64:64-i64:64-i128:128-f80:128-n8:16:32:64-S128"
target triple = "x86_64-pc-linux-gnu"

%struct.mi_heap_s = type { ptr, ptr, i64, i32, i64, [2 x i64], %struct.mi_random_cxt_s, i64, i64, i64, ptr, i8, i8, [129 x ptr], [75 x %struct.mi_page_queue_s] }
%struct.mi_random_cxt_s = type { [16 x i32], [16 x i32], i32, i8 }
%struct.mi_page_queue_s = type { ptr, ptr, i64 }
%struct.mi_page_s = type { i32, i32, i8, i16, i16, %union.mi_page_flags_s, i8, ptr, ptr, i16, i8, i8, i64, ptr, i64, i64, ptr, ptr, [1 x ptr] }
%union.mi_page_flags_s = type { i8 }
%struct.mi_block_s = type { i64 }

@_mi_heap_default = external thread_local(initialexec) global ptr, align 8

; Function Attrs: inlinehint nounwind uwtable
define internal void @_mi_memzero(ptr noundef %0, i64 noundef %1) #0 {
  %3 = alloca ptr, align 8
  %4 = alloca i64, align 8
  store ptr %0, ptr %3, align 8, !tbaa !7
  store i64 %1, ptr %4, align 8, !tbaa !3
  %5 = load ptr, ptr %3, align 8, !tbaa !7
  %6 = load i64, ptr %4, align 8, !tbaa !3
  call void @llvm.memset.p0.i64(ptr align 1 %5, i8 0, i64 %6, i1 false)
  ret void
}

; Function Attrs: inlinehint nounwind uwtable
define internal ptr @mi_block_nextx(ptr noundef %0, ptr noundef %1, ptr noundef %2) #0 {
  %4 = alloca ptr, align 8
  %5 = alloca ptr, align 8
  %6 = alloca ptr, align 8
  %7 = alloca ptr, align 8
  store ptr %0, ptr %4, align 8, !tbaa !7
  store ptr %1, ptr %5, align 8, !tbaa !18
  store ptr %2, ptr %6, align 8, !tbaa !40
  call void @llvm.lifetime.start.p0(i64 8, ptr %7) #15
  %8 = load ptr, ptr %5, align 8, !tbaa !18
  %9 = getelementptr inbounds nuw %struct.mi_block_s, ptr %8, i32 0, i32 0
  %10 = load i64, ptr %9, align 8, !tbaa !38
  %11 = inttoptr i64 %10 to ptr
  store ptr %11, ptr %7, align 8, !tbaa !18
  %12 = load ptr, ptr %7, align 8, !tbaa !18
  call void @llvm.lifetime.end.p0(i64 8, ptr %7) #15
  ret ptr %12
}

; Function Attrs: inlinehint nounwind uwtable
define internal void @_mi_memzero_aligned(ptr noundef %0, i64 noundef %1) #0 {
  %3 = alloca ptr, align 8
  %4 = alloca i64, align 8
  %5 = alloca ptr, align 8
  store ptr %0, ptr %3, align 8, !tbaa !7
  store i64 %1, ptr %4, align 8, !tbaa !3
  call void @llvm.lifetime.start.p0(i64 8, ptr %5) #15
  %6 = load ptr, ptr %3, align 8, !tbaa !7
  call void @llvm.assume(i1 true) [ "align"(ptr %6, i64 8) ]
  store ptr %6, ptr %5, align 8, !tbaa !7
  %7 = load ptr, ptr %5, align 8, !tbaa !7
  %8 = load i64, ptr %4, align 8, !tbaa !3
  call void @_mi_memzero(ptr noundef %7, i64 noundef %8) #14
  call void @llvm.lifetime.end.p0(i64 8, ptr %5) #15
  ret void
}

; Function Attrs: inlinehint nounwind uwtable
define internal ptr @mi_block_next(ptr noundef %0, ptr noundef %1) #0 {
  %3 = alloca ptr, align 8
  %4 = alloca ptr, align 8
  store ptr %0, ptr %3, align 8, !tbaa !13
  store ptr %1, ptr %4, align 8, !tbaa !18
  %5 = load ptr, ptr %3, align 8, !tbaa !13
  %6 = load ptr, ptr %4, align 8, !tbaa !18
  %7 = call ptr @mi_block_nextx(ptr noundef %5, ptr noundef %6, ptr noundef null) #14
  ret ptr %7
}

; Function Attrs: inlinehint nounwind uwtable
define internal i64 @_mi_wsize_from_size(i64 noundef %0) #0 {
  %2 = alloca i64, align 8
  store i64 %0, ptr %2, align 8, !tbaa !3
  %3 = load i64, ptr %2, align 8, !tbaa !3
  %4 = add i64 %3, 8
  %5 = sub i64 %4, 1
  %6 = udiv i64 %5, 8
  ret i64 %6
}

; Function Attrs: inlinehint nounwind uwtable
define hidden ptr @_mi_page_malloc_zero(ptr noundef %0, ptr noundef %1, i64 noundef %2, i1 noundef zeroext %3) #0 {
  %5 = alloca ptr, align 8
  %6 = alloca ptr, align 8
  %7 = alloca ptr, align 8
  %8 = alloca i64, align 8
  %9 = alloca i8, align 1
  %10 = alloca ptr, align 8
  %11 = alloca i32, align 4
  store ptr %0, ptr %6, align 8, !tbaa !35
  store ptr %1, ptr %7, align 8, !tbaa !13
  store i64 %2, ptr %8, align 8, !tbaa !3
  %12 = zext i1 %3 to i8
  store i8 %12, ptr %9, align 1, !tbaa !11
  call void @llvm.lifetime.start.p0(i64 8, ptr %10) #15
  %13 = load ptr, ptr %7, align 8, !tbaa !13
  %14 = getelementptr inbounds nuw %struct.mi_page_s, ptr %13, i32 0, i32 7
  %15 = load ptr, ptr %14, align 8, !tbaa !37
  store ptr %15, ptr %10, align 8, !tbaa !18
  %16 = load ptr, ptr %10, align 8, !tbaa !18
  %17 = icmp eq ptr %16, null
  %18 = xor i1 %17, true
  %19 = xor i1 %18, true
  %20 = zext i1 %19 to i32
  %21 = sext i32 %20 to i64
  %22 = call i64 @llvm.expect.i64(i64 %21, i64 0)
  %23 = icmp ne i64 %22, 0
  br i1 %23, label %24, label %30

24:                                               ; preds = %4
  %25 = load ptr, ptr %6, align 8, !tbaa !35
  %26 = load i64, ptr %8, align 8, !tbaa !3
  %27 = load i8, ptr %9, align 1, !tbaa !11, !range !15, !noundef !16
  %28 = trunc i8 %27 to i1
  %29 = call noalias ptr @_mi_malloc_generic(ptr noundef %25, i64 noundef %26, i1 noundef zeroext %28, i64 noundef 0) #14
  store ptr %29, ptr %5, align 8
  store i32 1, ptr %11, align 4
  br label %66

30:                                               ; preds = %4
  %31 = load ptr, ptr %7, align 8, !tbaa !13
  %32 = load ptr, ptr %10, align 8, !tbaa !18
  %33 = call ptr @mi_block_next(ptr noundef %31, ptr noundef %32) #14
  %34 = load ptr, ptr %7, align 8, !tbaa !13
  %35 = getelementptr inbounds nuw %struct.mi_page_s, ptr %34, i32 0, i32 7
  store ptr %33, ptr %35, align 8, !tbaa !37
  %36 = load ptr, ptr %7, align 8, !tbaa !13
  %37 = getelementptr inbounds nuw %struct.mi_page_s, ptr %36, i32 0, i32 9
  %38 = load i16, ptr %37, align 8, !tbaa !34
  %39 = add i16 %38, 1
  store i16 %39, ptr %37, align 8, !tbaa !34
  %40 = load i8, ptr %9, align 1, !tbaa !11, !range !15, !noundef !16
  %41 = trunc i8 %40 to i1
  %42 = xor i1 %41, true
  %43 = xor i1 %42, true
  %44 = zext i1 %43 to i32
  %45 = sext i32 %44 to i64
  %46 = call i64 @llvm.expect.i64(i64 %45, i64 0)
  %47 = icmp ne i64 %46, 0
  br i1 %47, label %48, label %64

48:                                               ; preds = %30
  %49 = load ptr, ptr %7, align 8, !tbaa !13
  %50 = getelementptr inbounds nuw %struct.mi_page_s, ptr %49, i32 0, i32 6
  %51 = load i8, ptr %50, align 1
  %52 = and i8 %51, 1
  %53 = icmp ne i8 %52, 0
  br i1 %53, label %54, label %57

54:                                               ; preds = %48
  %55 = load ptr, ptr %10, align 8, !tbaa !18
  %56 = getelementptr inbounds nuw %struct.mi_block_s, ptr %55, i32 0, i32 0
  store i64 0, ptr %56, align 8, !tbaa !38
  br label %63

57:                                               ; preds = %48
  %58 = load ptr, ptr %10, align 8, !tbaa !18
  %59 = load ptr, ptr %7, align 8, !tbaa !13
  %60 = getelementptr inbounds nuw %struct.mi_page_s, ptr %59, i32 0, i32 12
  %61 = load i64, ptr %60, align 8, !tbaa !32
  %62 = sub i64 %61, 0
  call void @_mi_memzero_aligned(ptr noundef %58, i64 noundef %62) #14
  br label %63

63:                                               ; preds = %57, %54
  br label %64

64:                                               ; preds = %63, %30
  %65 = load ptr, ptr %10, align 8, !tbaa !18
  store ptr %65, ptr %5, align 8
  store i32 1, ptr %11, align 4
  br label %66

66:                                               ; preds = %64, %24
  call void @llvm.lifetime.end.p0(i64 8, ptr %10) #15
  %67 = load ptr, ptr %5, align 8
  ret ptr %67
}

; Function Attrs: inlinehint nounwind uwtable
define internal ptr @_mi_heap_get_free_small_page(ptr noundef %0, i64 noundef %1) #0 {
  %3 = alloca ptr, align 8
  %4 = alloca i64, align 8
  %5 = alloca i64, align 8
  store ptr %0, ptr %3, align 8, !tbaa !35
  store i64 %1, ptr %4, align 8, !tbaa !3
  call void @llvm.lifetime.start.p0(i64 8, ptr %5) #15
  %6 = load i64, ptr %4, align 8, !tbaa !3
  %7 = call i64 @_mi_wsize_from_size(i64 noundef %6) #14
  store i64 %7, ptr %5, align 8, !tbaa !3
  %8 = load ptr, ptr %3, align 8, !tbaa !35
  %9 = getelementptr inbounds nuw %struct.mi_heap_s, ptr %8, i32 0, i32 13
  %10 = load i64, ptr %5, align 8, !tbaa !3
  %11 = getelementptr inbounds nuw [129 x ptr], ptr %9, i64 0, i64 %10
  %12 = load ptr, ptr %11, align 8, !tbaa !13
  call void @llvm.lifetime.end.p0(i64 8, ptr %5) #15
  ret ptr %12
}

; Function Attrs: inlinehint nounwind uwtable
define internal ptr @mi_heap_malloc_small_zero(ptr noundef %0, i64 noundef %1, i1 noundef zeroext %2) #0 {
  %4 = alloca ptr, align 8
  %5 = alloca i64, align 8
  %6 = alloca i8, align 1
  %7 = alloca ptr, align 8
  %8 = alloca ptr, align 8
  store ptr %0, ptr %4, align 8, !tbaa !35
  store i64 %1, ptr %5, align 8, !tbaa !3
  %9 = zext i1 %2 to i8
  store i8 %9, ptr %6, align 1, !tbaa !11
  call void @llvm.lifetime.start.p0(i64 8, ptr %7) #15
  %10 = load ptr, ptr %4, align 8, !tbaa !35
  %11 = load i64, ptr %5, align 8, !tbaa !3
  %12 = add i64 %11, 0
  %13 = call ptr @_mi_heap_get_free_small_page(ptr noundef %10, i64 noundef %12) #14
  store ptr %13, ptr %7, align 8, !tbaa !13
  call void @llvm.lifetime.start.p0(i64 8, ptr %8) #15
  %14 = load ptr, ptr %4, align 8, !tbaa !35
  %15 = load ptr, ptr %7, align 8, !tbaa !13
  %16 = load i64, ptr %5, align 8, !tbaa !3
  %17 = add i64 %16, 0
  %18 = load i8, ptr %6, align 1, !tbaa !11, !range !15, !noundef !16
  %19 = trunc i8 %18 to i1
  %20 = call ptr @_mi_page_malloc_zero(ptr noundef %14, ptr noundef %15, i64 noundef %17, i1 noundef zeroext %19) #14
  store ptr %20, ptr %8, align 8, !tbaa !7
  %21 = load ptr, ptr %8, align 8, !tbaa !7
  %22 = icmp ne ptr %21, null
  br i1 %22, label %23, label %24

23:                                               ; preds = %3
  br label %24

24:                                               ; preds = %23, %3
  %25 = load ptr, ptr %8, align 8, !tbaa !7
  call void @llvm.lifetime.end.p0(i64 8, ptr %8) #15
  call void @llvm.lifetime.end.p0(i64 8, ptr %7) #15
  ret ptr %25
}

; Function Attrs: inlinehint nounwind uwtable
define internal ptr @mi_prim_get_default_heap() #0 {
  %1 = call align 8 ptr @llvm.threadlocal.address.p0(ptr align 8 @_mi_heap_default)
  %2 = load ptr, ptr %1, align 8, !tbaa !35
  ret ptr %2
}

; Function Attrs: nounwind uwtable
define hidden noalias ptr @mi_zalloc_small(i64 noundef %0) #3 {
  %2 = alloca i64, align 8
  store i64 %0, ptr %2, align 8, !tbaa !3
  %3 = call ptr @mi_prim_get_default_heap() #14
  %4 = load i64, ptr %2, align 8, !tbaa !3
  %5 = call ptr @mi_heap_malloc_small_zero(ptr noundef %3, i64 noundef %4, i1 noundef zeroext true) #14
  ret ptr %5
}